target datalayout = "e-m:e-p270:32:32-p271:32:32-p272:64:64-i64:64-i128:128-f80:128-n8:16:32:64-S128"
target triple = "x86_64-pc-linux-gnu"

; Function Attrs: mustprogress nounwind uwtable
define dso_local void @_Z12qoi_write_32PhPij(ptr noundef %0, ptr noundef %1, i32 noundef %2) #1 {
  %4 = alloca ptr, align 8
  %5 = alloca ptr, align 8
  %6 = alloca i32, align 4
  store ptr %0, ptr %4, align 8
  store ptr %1, ptr %5, align 8
  store i32 %2, ptr %6, align 4
  %7 = load i32, ptr %6, align 4
  %8 = and i32 -16777216, %7
  %9 = lshr i32 %8, 24
  %10 = trunc i32 %9 to i8
  %11 = load ptr, ptr %4, align 8
  %12 = load ptr, ptr %5, align 8
  %13 = load i32, ptr %12, align 4
  %14 = add nsw i32 %13, 1
  store i32 %14, ptr %12, align 4
  %15 = sext i32 %13 to i64
  %16 = getelementptr inbounds i8, ptr %11, i64 %15
  store i8 %10, ptr %16, align 1
  %17 = load i32, ptr %6, align 4
  %18 = and i32 16711680, %17
  %19 = lshr i32 %18, 16
  %20 = trunc i32 %19 to i8
  %21 = load ptr, ptr %4, align 8
  %22 = load ptr, ptr %5, align 8
  %23 = load i32, ptr %22, align 4
  %24 = add nsw i32 %23, 1
  store i32 %24, ptr %22, align 4
  %25 = sext i32 %23 to i64
  %26 = getelementptr inbounds i8, ptr %21, i64 %25
  store i8 %20, ptr %26, align 1
  %27 = load i32, ptr %6, align 4
  %28 = and i32 65280, %27
  %29 = lshr i32 %28, 8
  %30 = trunc i32 %29 to i8
  %31 = load ptr, ptr %4, align 8
  %32 = load ptr, ptr %5, align 8
  %33 = load i32, ptr %32, align 4
  %34 = add nsw i32 %33, 1
  store i32 %34, ptr %32, align 4
  %35 = sext i32 %33 to i64
  %36 = getelementptr inbounds i8, ptr %31, i64 %35
  store i8 %30, ptr %36, align 1
  %37 = load i32, ptr %6, align 4
  %38 = and i32 255, %37
  %39 = trunc i32 %38 to i8
  %40 = load ptr, ptr %4, align 8
  %41 = load ptr, ptr %5, align 8
  %42 = load i32, ptr %41, align 4
  %43 = add nsw i32 %42, 1
  store i32 %43, ptr %41, align 4
  %44 = sext i32 %42 to i64
  %45 = getelementptr inbounds i8, ptr %40, i64 %44
  store i8 %39, ptr %45, align 1
  ret void
}