; Function Attrs: mustprogress nofree norecurse nosync nounwind willreturn memory(argmem: readwrite) uwtable
define dso_local void @_Z12qoi_write_32PhPij(ptr nocapture noundef writeonly %0, ptr nocapture noundef %1, i32 noundef %2) local_unnamed_addr #3 {
  %4 = lshr i32 %2, 24
  %5 = trunc i32 %4 to i8
  %6 = load i32, ptr %1, align 4
  %7 = add nsw i32 %6, 1
  store i32 %7, ptr %1, align 4
  %8 = sext i32 %6 to i64
  %9 = getelementptr inbounds i8, ptr %0, i64 %8
  store i8 %5, ptr %9, align 1
  %10 = lshr i32 %2, 16
  %11 = trunc i32 %10 to i8
  %12 = load i32, ptr %1, align 4
  %13 = add nsw i32 %12, 1
  store i32 %13, ptr %1, align 4
  %14 = sext i32 %12 to i64
  %15 = getelementptr inbounds i8, ptr %0, i64 %14
  store i8 %11, ptr %15, align 1
  %16 = lshr i32 %2, 8
  %17 = trunc i32 %16 to i8
  %18 = load i32, ptr %1, align 4
  %19 = add nsw i32 %18, 1
  store i32 %19, ptr %1, align 4
  %20 = sext i32 %18 to i64
  %21 = getelementptr inbounds i8, ptr %0, i64 %20
  store i8 %17, ptr %21, align 1
  %22 = trunc i32 %2 to i8
  %23 = load i32, ptr %1, align 4
  %24 = add nsw i32 %23, 1
  store i32 %24, ptr %1, align 4
  %25 = sext i32 %23 to i64
  %26 = getelementptr inbounds i8, ptr %0, i64 %25
  store i8 %22, ptr %26, align 1
  ret void
}